; Function Attrs: nounwind uwtable
define internal noundef ptr @clear_context_stack(ptr readnone captures(none) %0, ptr readnone captures(none) %1) #0 {
  %3 = tail call ptr @PyThreadState_Get() #6
  %4 = getelementptr inbounds nuw i8, ptr %3, i64 208
  %5 = load ptr, ptr %4, align 8, !tbaa !33
  %6 = icmp eq ptr %5, null
  br i1 %6, label %Py_DECREF.exit, label %7

7:                                                ; preds = %2
  %8 = getelementptr inbounds nuw i8, ptr %5, i64 16
  %9 = load ptr, ptr %8, align 8, !tbaa !43
  %.not = icmp eq ptr %9, null
  br i1 %.not, label %12, label %10

10:                                               ; preds = %7
  %11 = load ptr, ptr @PyExc_RuntimeError, align 8, !tbaa !21
  tail call void @PyErr_SetString(ptr noundef %11, ptr noundef nonnull @.str.60) #6
  br label %Py_DECREF.exit

12:                                               ; preds = %7
  store ptr null, ptr %4, align 8, !tbaa !21
  %13 = load i32, ptr %5, align 8, !tbaa !22
  %.not.i = icmp sgt i32 %13, -1
  br i1 %.not.i, label %14, label %Py_DECREF.exit

14:                                               ; preds = %12
  %15 = add nsw i32 %13, -1
  store i32 %15, ptr %5, align 8, !tbaa !22
  %16 = icmp eq i32 %15, 0
  br i1 %16, label %17, label %Py_DECREF.exit

17:                                               ; preds = %14
  tail call void @_Py_Dealloc(ptr noundef nonnull %5) #6
  br label %Py_DECREF.exit

Py_DECREF.exit:                                   ; preds = %17, %14, %12, %2, %10
  %.0 = phi ptr [ null, %10 ], [ @_Py_NoneStruct, %2 ], [ @_Py_NoneStruct, %12 ], [ @_Py_NoneStruct, %14 ], [ @_Py_NoneStruct, %17 ]
  ret ptr %.0
}